target datalayout = "e-m:e-p270:32:32-p271:32:32-p272:64:64-i64:64-i128:128-f80:128-n8:16:32:64-S128"
target triple = "x86_64-pc-linux-gnu"

%"class.casadi::SharedObject" = type { ptr }
%"class.casadi::MX" = type { %"class.casadi::SharedObject" }

@_ZN6casadi2MXD1Ev = unnamed_addr alias void (ptr), ptr @_ZN6casadi2MXD2Ev
@_ZN6casadi2MXC1Ed = unnamed_addr alias void (ptr, double), ptr @_ZN6casadi2MXC2Ed

; Function Attrs: mustprogress uwtable
define linkonce_odr hidden void @_ZN6casadi17GenericExpressionINS_2MXEE5minusERKS1_S4_(ptr dead_on_unwind noalias writable sret(%"class.casadi::MX") align 8 %0, ptr noundef nonnull align 8 dereferenceable(8) %1, ptr noundef nonnull align 8 dereferenceable(8) %2) #4 comdat align 2 {
  %4 = alloca ptr, align 8
  %5 = alloca ptr, align 8
  %6 = alloca ptr, align 8
  store ptr %0, ptr %4, align 8
  store ptr %1, ptr %5, align 8
  store ptr %2, ptr %6, align 8
  %7 = load ptr, ptr %5, align 8
  %8 = load ptr, ptr %6, align 8
  call void @_ZN6casadi2MX6binaryExRKS0_S2_(ptr dead_on_unwind writable sret(%"class.casadi::MX") align 8 %0, i64 noundef 2, ptr noundef nonnull align 8 dereferenceable(8) %7, ptr noundef nonnull align 8 dereferenceable(8) %8)
  ret void
}

; Function Attrs: mustprogress uwtable
define linkonce_odr hidden noundef nonnull align 8 dereferenceable(8) ptr @_ZN6casadi2MXaSERKS0_(ptr noundef nonnull align 8 dereferenceable(8) %0, ptr noundef nonnull align 8 dereferenceable(8) %1) #4 comdat align 2 {
  %3 = alloca ptr, align 8
  %4 = alloca ptr, align 8
  store ptr %0, ptr %3, align 8
  store ptr %1, ptr %4, align 8
  %5 = load ptr, ptr %3, align 8
  %6 = load ptr, ptr %4, align 8
  %7 = call noundef nonnull align 8 dereferenceable(8) ptr @_ZN6casadi12SharedObjectaSERKS0_(ptr noundef nonnull align 8 dereferenceable(8) %5, ptr noundef nonnull align 8 dereferenceable(8) %6)
  ret ptr %5
}

; Function Attrs: mustprogress uwtable
define linkonce_odr hidden void @_ZN6casadi2MXC2ERKS0_(ptr noundef nonnull align 8 dereferenceable(8) %0, ptr noundef nonnull align 8 dereferenceable(8) %1) unnamed_addr #4 comdat align 2 {
  %3 = alloca ptr, align 8
  %4 = alloca ptr, align 8
  store ptr %0, ptr %3, align 8
  store ptr %1, ptr %4, align 8
  %5 = load ptr, ptr %3, align 8
  %6 = load ptr, ptr %4, align 8
  call void @_ZN6casadi12SharedObjectC2ERKS0_(ptr noundef nonnull align 8 dereferenceable(8) %5, ptr noundef nonnull align 8 dereferenceable(8) %6)
  ret void
}

; Function Attrs: mustprogress uwtable
define linkonce_odr hidden void @_ZN6casadimiERKNS_2MXES2_(ptr dead_on_unwind noalias writable sret(%"class.casadi::MX") align 8 %0, ptr noundef nonnull align 8 dereferenceable(8) %1, ptr noundef nonnull align 8 dereferenceable(8) %2) #4 comdat {
  %4 = alloca ptr, align 8
  %5 = alloca ptr, align 8
  %6 = alloca ptr, align 8
  store ptr %0, ptr %4, align 8
  store ptr %1, ptr %5, align 8
  store ptr %2, ptr %6, align 8
  %7 = load ptr, ptr %5, align 8
  %8 = load ptr, ptr %6, align 8
  call void @_ZN6casadi17GenericExpressionINS_2MXEE5minusERKS1_S4_(ptr dead_on_unwind writable sret(%"class.casadi::MX") align 8 %0, ptr noundef nonnull align 8 dereferenceable(8) %7, ptr noundef nonnull align 8 dereferenceable(8) %8)
  ret void
}

; Function Attrs: mustprogress uwtable
define noundef ptr @_ZNK6casadi2MXptEv(ptr noundef nonnull align 8 dereferenceable(8) %0) #4 align 2 {
  %2 = alloca ptr, align 8
  store ptr %0, ptr %2, align 8
  %3 = load ptr, ptr %2, align 8
  %4 = call noundef ptr @_ZNK6casadi12SharedObjectptEv(ptr noundef nonnull align 8 dereferenceable(8) %3)
  ret ptr %4
}

; Function Attrs: mustprogress uwtable
define void @_ZNK6casadi2MX6get_nzERS0_bRKS0_S3_(ptr noundef nonnull align 8 dereferenceable(8) %0, ptr noundef nonnull align 8 dereferenceable(8) %1, i1 noundef zeroext %2, ptr noundef nonnull align 8 dereferenceable(8) %3, ptr noundef nonnull align 8 dereferenceable(8) %4) #4 align 2 personality ptr @__gxx_personality_v0 {
  %6 = alloca ptr, align 8
  %7 = alloca ptr, align 8
  %8 = alloca i8, align 1
  %9 = alloca ptr, align 8
  %10 = alloca ptr, align 8
  %11 = alloca %"class.casadi::MX", align 8
  %12 = alloca %"class.casadi::MX", align 8
  %13 = alloca %"class.casadi::MX", align 8
  %14 = alloca i1, align 1
  %15 = alloca ptr, align 8
  %16 = alloca i32, align 4
  %17 = alloca %"class.casadi::MX", align 8
  %18 = alloca %"class.casadi::MX", align 8
  %19 = alloca i1, align 1
  store ptr %0, ptr %6, align 8
  store ptr %1, ptr %7, align 8
  %20 = zext i1 %2 to i8
  store i8 %20, ptr %8, align 1
  store ptr %3, ptr %9, align 8
  store ptr %4, ptr %10, align 8
  %21 = load ptr, ptr %6, align 8
  %22 = call noundef ptr @_ZNK6casadi2MXptEv(ptr noundef nonnull align 8 dereferenceable(8) %21)
  %23 = load i8, ptr %8, align 1
  %24 = trunc i8 %23 to i1
  store i1 false, ptr %14, align 1
  br i1 %24, label %25, label %28

25:                                               ; preds = %5
  %26 = load ptr, ptr %9, align 8
  call void @_ZN6casadi2MXC1Ed(ptr noundef nonnull align 8 dereferenceable(8) %13, double noundef 1.000000e+00)
  store i1 true, ptr %14, align 1
  invoke void @_ZN6casadimiERKNS_2MXES2_(ptr dead_on_unwind writable sret(%"class.casadi::MX") align 8 %12, ptr noundef nonnull align 8 dereferenceable(8) %26, ptr noundef nonnull align 8 dereferenceable(8) %13)
          to label %27 unwind label %55

27:                                               ; preds = %25
  br label %31

28:                                               ; preds = %5
  %29 = load ptr, ptr %9, align 8
  invoke void @_ZN6casadi2MXC2ERKS0_(ptr noundef nonnull align 8 dereferenceable(8) %12, ptr noundef nonnull align 8 dereferenceable(8) %29)
          to label %30 unwind label %55

30:                                               ; preds = %28
  br label %31

31:                                               ; preds = %30, %27
  %32 = load i8, ptr %8, align 1
  %33 = trunc i8 %32 to i1
  store i1 false, ptr %19, align 1
  br i1 %33, label %34, label %38

34:                                               ; preds = %31
  %35 = load ptr, ptr %10, align 8
  invoke void @_ZN6casadi2MXC1Ed(ptr noundef nonnull align 8 dereferenceable(8) %18, double noundef 1.000000e+00)
          to label %36 unwind label %59

36:                                               ; preds = %34
  store i1 true, ptr %19, align 1
  invoke void @_ZN6casadimiERKNS_2MXES2_(ptr dead_on_unwind writable sret(%"class.casadi::MX") align 8 %17, ptr noundef nonnull align 8 dereferenceable(8) %35, ptr noundef nonnull align 8 dereferenceable(8) %18)
          to label %37 unwind label %63

37:                                               ; preds = %36
  br label %41

38:                                               ; preds = %31
  %39 = load ptr, ptr %10, align 8
  invoke void @_ZN6casadi2MXC2ERKS0_(ptr noundef nonnull align 8 dereferenceable(8) %17, ptr noundef nonnull align 8 dereferenceable(8) %39)
          to label %40 unwind label %63

40:                                               ; preds = %38
  br label %41

41:                                               ; preds = %40, %37
  %42 = load ptr, ptr %22, align 8
  %43 = getelementptr inbounds ptr, ptr %42, i64 81
  %44 = load ptr, ptr %43, align 8
  invoke void %44(ptr dead_on_unwind writable sret(%"class.casadi::MX") align 8 %11, ptr noundef nonnull align 8 dereferenceable(64) %22, ptr noundef nonnull align 8 dereferenceable(8) %12, ptr noundef nonnull align 8 dereferenceable(8) %17)
          to label %45 unwind label %67

45:                                               ; preds = %41
  %46 = load ptr, ptr %7, align 8
  %47 = invoke noundef nonnull align 8 dereferenceable(8) ptr @_ZN6casadi2MXaSERKS0_(ptr noundef nonnull align 8 dereferenceable(8) %46, ptr noundef nonnull align 8 dereferenceable(8) %11)
          to label %48 unwind label %71

48:                                               ; preds = %45
  call void @_ZN6casadi2MXD1Ev(ptr noundef nonnull align 8 dereferenceable(8) %11) #3
  call void @_ZN6casadi2MXD1Ev(ptr noundef nonnull align 8 dereferenceable(8) %17) #3
  %49 = load i1, ptr %19, align 1
  br i1 %49, label %50, label %51

50:                                               ; preds = %48
  call void @_ZN6casadi2MXD1Ev(ptr noundef nonnull align 8 dereferenceable(8) %18) #3
  br label %51

51:                                               ; preds = %50, %48
  call void @_ZN6casadi2MXD1Ev(ptr noundef nonnull align 8 dereferenceable(8) %12) #3
  %52 = load i1, ptr %14, align 1
  br i1 %52, label %53, label %54

53:                                               ; preds = %51
  call void @_ZN6casadi2MXD1Ev(ptr noundef nonnull align 8 dereferenceable(8) %13) #3
  br label %54

54:                                               ; preds = %53, %51
  ret void

55:                                               ; preds = %28, %25
  %56 = landingpad { ptr, i32 }
          cleanup
  %57 = extractvalue { ptr, i32 } %56, 0
  store ptr %57, ptr %15, align 8
  %58 = extractvalue { ptr, i32 } %56, 1
  store i32 %58, ptr %16, align 4
  br label %81

59:                                               ; preds = %34
  %60 = landingpad { ptr, i32 }
          cleanup
  %61 = extractvalue { ptr, i32 } %60, 0
  store ptr %61, ptr %15, align 8
  %62 = extractvalue { ptr, i32 } %60, 1
  store i32 %62, ptr %16, align 4
  br label %80

63:                                               ; preds = %38, %36
  %64 = landingpad { ptr, i32 }
          cleanup
  %65 = extractvalue { ptr, i32 } %64, 0
  store ptr %65, ptr %15, align 8
  %66 = extractvalue { ptr, i32 } %64, 1
  store i32 %66, ptr %16, align 4
  br label %76

67:                                               ; preds = %41
  %68 = landingpad { ptr, i32 }
          cleanup
  %69 = extractvalue { ptr, i32 } %68, 0
  store ptr %69, ptr %15, align 8
  %70 = extractvalue { ptr, i32 } %68, 1
  store i32 %70, ptr %16, align 4
  br label %75

71:                                               ; preds = %45
  %72 = landingpad { ptr, i32 }
          cleanup
  %73 = extractvalue { ptr, i32 } %72, 0
  store ptr %73, ptr %15, align 8
  %74 = extractvalue { ptr, i32 } %72, 1
  store i32 %74, ptr %16, align 4
  call void @_ZN6casadi2MXD1Ev(ptr noundef nonnull align 8 dereferenceable(8) %11) #3
  br label %75

75:                                               ; preds = %71, %67
  call void @_ZN6casadi2MXD1Ev(ptr noundef nonnull align 8 dereferenceable(8) %17) #3
  br label %76

76:                                               ; preds = %75, %63
  %77 = load i1, ptr %19, align 1
  br i1 %77, label %78, label %79

78:                                               ; preds = %76
  call void @_ZN6casadi2MXD1Ev(ptr noundef nonnull align 8 dereferenceable(8) %18) #3
  br label %79

79:                                               ; preds = %78, %76
  br label %80

80:                                               ; preds = %79, %59
  call void @_ZN6casadi2MXD1Ev(ptr noundef nonnull align 8 dereferenceable(8) %12) #3
  br label %81

81:                                               ; preds = %80, %55
  %82 = load i1, ptr %14, align 1
  br i1 %82, label %83, label %84

83:                                               ; preds = %81
  call void @_ZN6casadi2MXD1Ev(ptr noundef nonnull align 8 dereferenceable(8) %13) #3
  br label %84

84:                                               ; preds = %83, %81
  br label %85

85:                                               ; preds = %84
  %86 = load ptr, ptr %15, align 8
  %87 = load i32, ptr %16, align 4
  %88 = insertvalue { ptr, i32 } poison, ptr %86, 0
  %89 = insertvalue { ptr, i32 } %88, i32 %87, 1
  resume { ptr, i32 } %89
}