; Function Attrs: mustprogress uwtable
define void @_ZNK6casadi2MX6get_nzERS0_bRKS0_S3_(ptr noundef nonnull align 8 dereferenceable(8) %0, ptr noundef nonnull align 8 dereferenceable(8) %1, i1 noundef zeroext %2, ptr noundef nonnull align 8 dereferenceable(8) %3, ptr noundef nonnull align 8 dereferenceable(8) %4) local_unnamed_addr #3 align 2 personality ptr @__gxx_personality_v0 {
  %6 = alloca %"class.casadi::MX", align 8
  %7 = alloca %"class.casadi::MX", align 8
  %8 = alloca %"class.casadi::MX", align 8
  %9 = alloca %"class.casadi::MX", align 8
  %10 = alloca %"class.casadi::MX", align 8
  %11 = tail call noundef ptr @_ZNK6casadi12SharedObjectptEv(ptr noundef nonnull align 8 dereferenceable(8) %0)
  br i1 %2, label %12, label %13

12:                                               ; preds = %5
  call void @_ZN6casadi2MXC1Ed(ptr noundef nonnull align 8 dereferenceable(8) %8, double noundef 1.000000e+00)
  invoke void @_ZN6casadi2MX6binaryExRKS0_S2_(ptr dead_on_unwind nonnull writable sret(%"class.casadi::MX") align 8 %7, i64 noundef 2, ptr noundef nonnull align 8 dereferenceable(8) %3, ptr noundef nonnull align 8 dereferenceable(8) %8)
          to label %14 unwind label %22

13:                                               ; preds = %5
  invoke void @_ZN6casadi12SharedObjectC2ERKS0_(ptr noundef nonnull align 8 dereferenceable(8) %7, ptr noundef nonnull align 8 dereferenceable(8) %3)
          to label %_ZN6casadimiERKNS_2MXES2_.exit unwind label %22

14:                                               ; preds = %12
  invoke void @_ZN6casadi2MXC1Ed(ptr noundef nonnull align 8 dereferenceable(8) %10, double noundef 1.000000e+00)
          to label %15 unwind label %24

15:                                               ; preds = %14
  invoke void @_ZN6casadi2MX6binaryExRKS0_S2_(ptr dead_on_unwind nonnull writable sret(%"class.casadi::MX") align 8 %9, i64 noundef 2, ptr noundef nonnull align 8 dereferenceable(8) %4, ptr noundef nonnull align 8 dereferenceable(8) %10)
          to label %_ZN6casadimiERKNS_2MXES2_.exit27 unwind label %26

_ZN6casadimiERKNS_2MXES2_.exit:                   ; preds = %13
  invoke void @_ZN6casadi12SharedObjectC2ERKS0_(ptr noundef nonnull align 8 dereferenceable(8) %9, ptr noundef nonnull align 8 dereferenceable(8) %4)
          to label %_ZN6casadimiERKNS_2MXES2_.exit27 unwind label %26

_ZN6casadimiERKNS_2MXES2_.exit27:                 ; preds = %_ZN6casadimiERKNS_2MXES2_.exit, %15
  %16 = load ptr, ptr %11, align 8
  %17 = getelementptr inbounds i8, ptr %16, i64 648
  %18 = load ptr, ptr %17, align 8
  invoke void %18(ptr dead_on_unwind nonnull writable sret(%"class.casadi::MX") align 8 %6, ptr noundef nonnull align 8 dereferenceable(64) %11, ptr noundef nonnull align 8 dereferenceable(8) %7, ptr noundef nonnull align 8 dereferenceable(8) %9)
          to label %19 unwind label %28

19:                                               ; preds = %_ZN6casadimiERKNS_2MXES2_.exit27
  %20 = invoke noundef nonnull align 8 dereferenceable(8) ptr @_ZN6casadi12SharedObjectaSERKS0_(ptr noundef nonnull align 8 dereferenceable(8) %1, ptr noundef nonnull align 8 dereferenceable(8) %6)
          to label %_ZN6casadi2MXaSERKS0_.exit unwind label %30

_ZN6casadi2MXaSERKS0_.exit:                       ; preds = %19
  call void @_ZN6casadi2MXD1Ev(ptr noundef nonnull align 8 dereferenceable(8) %6) #27
  call void @_ZN6casadi2MXD1Ev(ptr noundef nonnull align 8 dereferenceable(8) %9) #27
  br i1 %2, label %21, label %.critedge

21:                                               ; preds = %_ZN6casadi2MXaSERKS0_.exit
  call void @_ZN6casadi2MXD1Ev(ptr noundef nonnull align 8 dereferenceable(8) %10) #27
  call void @_ZN6casadi2MXD1Ev(ptr noundef nonnull align 8 dereferenceable(8) %7) #27
  br label %.critedge

.critedge:                                        ; preds = %_ZN6casadi2MXaSERKS0_.exit, %21
  %.sink = phi ptr [ %8, %21 ], [ %7, %_ZN6casadi2MXaSERKS0_.exit ]
  call void @_ZN6casadi2MXD1Ev(ptr noundef nonnull align 8 dereferenceable(8) %.sink) #27
  ret void

22:                                               ; preds = %13, %12
  %23 = landingpad { ptr, i32 }
          cleanup
  br label %36

24:                                               ; preds = %14
  %25 = landingpad { ptr, i32 }
          cleanup
  br label %35

26:                                               ; preds = %_ZN6casadimiERKNS_2MXES2_.exit, %15
  %27 = landingpad { ptr, i32 }
          cleanup
  br label %33

28:                                               ; preds = %_ZN6casadimiERKNS_2MXES2_.exit27
  %29 = landingpad { ptr, i32 }
          cleanup
  br label %32

30:                                               ; preds = %19
  %31 = landingpad { ptr, i32 }
          cleanup
  call void @_ZN6casadi2MXD1Ev(ptr noundef nonnull align 8 dereferenceable(8) %6) #27
  br label %32

32:                                               ; preds = %30, %28
  %.pn = phi { ptr, i32 } [ %31, %30 ], [ %29, %28 ]
  call void @_ZN6casadi2MXD1Ev(ptr noundef nonnull align 8 dereferenceable(8) %9) #27
  br label %33

33:                                               ; preds = %32, %26
  %.pn.pn = phi { ptr, i32 } [ %.pn, %32 ], [ %27, %26 ]
  br i1 %2, label %34, label %35

34:                                               ; preds = %33
  call void @_ZN6casadi2MXD1Ev(ptr noundef nonnull align 8 dereferenceable(8) %10) #27
  br label %35

35:                                               ; preds = %33, %34, %24
  %.pn.pn.pn = phi { ptr, i32 } [ %.pn.pn, %34 ], [ %.pn.pn, %33 ], [ %25, %24 ]
  call void @_ZN6casadi2MXD1Ev(ptr noundef nonnull align 8 dereferenceable(8) %7) #27
  br label %36

36:                                               ; preds = %35, %22
  %.pn.pn.pn.pn = phi { ptr, i32 } [ %.pn.pn.pn, %35 ], [ %23, %22 ]
  br i1 %2, label %37, label %38

37:                                               ; preds = %36
  call void @_ZN6casadi2MXD1Ev(ptr noundef nonnull align 8 dereferenceable(8) %8) #27
  br label %38

38:                                               ; preds = %36, %37
  resume { ptr, i32 } %.pn.pn.pn.pn
}